target datalayout = "e-m:e-p270:32:32-p271:32:32-p272:64:64-i64:64-i128:128-f80:128-n8:16:32:64-S128"
target triple = "x86_64-pc-linux-gnu"

%struct.b2Vec2 = type { float, float }
%struct.b2Hull = type { [8 x %struct.b2Vec2], i32 }

@b2_lengthUnitsPerMeter = external global float, align 4
@b2Vec2_zero = internal constant %struct.b2Vec2 zeroinitializer, align 4

; Function Attrs: inlinehint nounwind uwtable
define internal float @b2Cross(<2 x float> %0, <2 x float> %1) #4 {
  %3 = alloca %struct.b2Vec2, align 4
  %4 = alloca %struct.b2Vec2, align 4
  store <2 x float> %0, ptr %3, align 4
  store <2 x float> %1, ptr %4, align 4
  %5 = getelementptr inbounds nuw %struct.b2Vec2, ptr %3, i32 0, i32 0
  %6 = load float, ptr %5, align 4, !tbaa !30
  %7 = getelementptr inbounds nuw %struct.b2Vec2, ptr %4, i32 0, i32 1
  %8 = load float, ptr %7, align 4, !tbaa !32
  %9 = fmul float %6, %8
  %10 = getelementptr inbounds nuw %struct.b2Vec2, ptr %3, i32 0, i32 1
  %11 = load float, ptr %10, align 4, !tbaa !32
  %12 = getelementptr inbounds nuw %struct.b2Vec2, ptr %4, i32 0, i32 0
  %13 = load float, ptr %12, align 4, !tbaa !30
  %14 = fmul float %11, %13
  %15 = fsub float %9, %14
  ret float %15
}

; Function Attrs: inlinehint nounwind uwtable
define internal <2 x float> @b2Normalize(<2 x float> %0) #4 {
  %2 = alloca %struct.b2Vec2, align 4
  %3 = alloca %struct.b2Vec2, align 4
  %4 = alloca float, align 4
  %5 = alloca i32, align 4
  %6 = alloca float, align 4
  store <2 x float> %0, ptr %3, align 4
  call void @llvm.lifetime.start.p0(i64 4, ptr %4) #6
  %7 = getelementptr inbounds nuw %struct.b2Vec2, ptr %3, i32 0, i32 0
  %8 = load float, ptr %7, align 4, !tbaa !30
  %9 = getelementptr inbounds nuw %struct.b2Vec2, ptr %3, i32 0, i32 0
  %10 = load float, ptr %9, align 4, !tbaa !30
  %11 = fmul float %8, %10
  %12 = getelementptr inbounds nuw %struct.b2Vec2, ptr %3, i32 0, i32 1
  %13 = load float, ptr %12, align 4, !tbaa !32
  %14 = getelementptr inbounds nuw %struct.b2Vec2, ptr %3, i32 0, i32 1
  %15 = load float, ptr %14, align 4, !tbaa !32
  %16 = fmul float %13, %15
  %17 = fadd float %11, %16
  %18 = call float @sqrtf(float noundef %17) #6, !tbaa !8
  store float %18, ptr %4, align 4, !tbaa !12
  %19 = load float, ptr %4, align 4, !tbaa !12
  %20 = fcmp olt float %19, 0x3E80000000000000
  br i1 %20, label %21, label %22

21:                                               ; preds = %1
  call void @llvm.memcpy.p0.p0.i64(ptr align 4 %2, ptr align 4 @b2Vec2_zero, i64 8, i1 false), !tbaa.struct !14
  store i32 1, ptr %5, align 4
  br label %35

22:                                               ; preds = %1
  call void @llvm.lifetime.start.p0(i64 4, ptr %6) #6
  %23 = load float, ptr %4, align 4, !tbaa !12
  %24 = fdiv float 1.000000e+00, %23
  store float %24, ptr %6, align 4, !tbaa !12
  %25 = getelementptr inbounds nuw %struct.b2Vec2, ptr %2, i32 0, i32 0
  %26 = load float, ptr %6, align 4, !tbaa !12
  %27 = getelementptr inbounds nuw %struct.b2Vec2, ptr %3, i32 0, i32 0
  %28 = load float, ptr %27, align 4, !tbaa !30
  %29 = fmul float %26, %28
  store float %29, ptr %25, align 4, !tbaa !30
  %30 = getelementptr inbounds nuw %struct.b2Vec2, ptr %2, i32 0, i32 1
  %31 = load float, ptr %6, align 4, !tbaa !12
  %32 = getelementptr inbounds nuw %struct.b2Vec2, ptr %3, i32 0, i32 1
  %33 = load float, ptr %32, align 4, !tbaa !32
  %34 = fmul float %31, %33
  store float %34, ptr %30, align 4, !tbaa !32
  store i32 1, ptr %5, align 4
  call void @llvm.lifetime.end.p0(i64 4, ptr %6) #6
  br label %35

35:                                               ; preds = %22, %21
  call void @llvm.lifetime.end.p0(i64 4, ptr %4) #6
  %36 = load <2 x float>, ptr %2, align 4
  ret <2 x float> %36
}

; Function Attrs: inlinehint nounwind uwtable
define internal <2 x float> @b2Sub(<2 x float> %0, <2 x float> %1) #4 {
  %3 = alloca %struct.b2Vec2, align 4
  %4 = alloca %struct.b2Vec2, align 4
  %5 = alloca %struct.b2Vec2, align 4
  store <2 x float> %0, ptr %4, align 4
  store <2 x float> %1, ptr %5, align 4
  %6 = getelementptr inbounds nuw %struct.b2Vec2, ptr %3, i32 0, i32 0
  %7 = getelementptr inbounds nuw %struct.b2Vec2, ptr %4, i32 0, i32 0
  %8 = load float, ptr %7, align 4, !tbaa !30
  %9 = getelementptr inbounds nuw %struct.b2Vec2, ptr %5, i32 0, i32 0
  %10 = load float, ptr %9, align 4, !tbaa !30
  %11 = fsub float %8, %10
  store float %11, ptr %6, align 4, !tbaa !30
  %12 = getelementptr inbounds nuw %struct.b2Vec2, ptr %3, i32 0, i32 1
  %13 = getelementptr inbounds nuw %struct.b2Vec2, ptr %4, i32 0, i32 1
  %14 = load float, ptr %13, align 4, !tbaa !32
  %15 = getelementptr inbounds nuw %struct.b2Vec2, ptr %5, i32 0, i32 1
  %16 = load float, ptr %15, align 4, !tbaa !32
  %17 = fsub float %14, %16
  store float %17, ptr %12, align 4, !tbaa !32
  %18 = load <2 x float>, ptr %3, align 4
  ret <2 x float> %18
}

; Function Attrs: nounwind uwtable
define zeroext i1 @b2ValidateHull(ptr noundef %0) #0 {
  %2 = alloca i1, align 1
  %3 = alloca ptr, align 8
  %4 = alloca i32, align 4
  %5 = alloca i32, align 4
  %6 = alloca i32, align 4
  %7 = alloca i32, align 4
  %8 = alloca %struct.b2Vec2, align 4
  %9 = alloca %struct.b2Vec2, align 4
  %10 = alloca %struct.b2Vec2, align 4
  %11 = alloca i32, align 4
  %12 = alloca float, align 4
  %13 = alloca %struct.b2Vec2, align 4
  %14 = alloca float, align 4
  %15 = alloca i32, align 4
  %16 = alloca i32, align 4
  %17 = alloca i32, align 4
  %18 = alloca i32, align 4
  %19 = alloca %struct.b2Vec2, align 4
  %20 = alloca %struct.b2Vec2, align 4
  %21 = alloca %struct.b2Vec2, align 4
  %22 = alloca %struct.b2Vec2, align 4
  %23 = alloca %struct.b2Vec2, align 4
  %24 = alloca float, align 4
  %25 = alloca %struct.b2Vec2, align 4
  store ptr %0, ptr %3, align 8, !tbaa !41
  %26 = load ptr, ptr %3, align 8, !tbaa !41
  %27 = getelementptr inbounds nuw %struct.b2Hull, ptr %26, i32 0, i32 1
  %28 = load i32, ptr %27, align 4, !tbaa !10
  %29 = icmp slt i32 %28, 3
  br i1 %29, label %35, label %30

30:                                               ; preds = %1
  %31 = load ptr, ptr %3, align 8, !tbaa !41
  %32 = getelementptr inbounds nuw %struct.b2Hull, ptr %31, i32 0, i32 1
  %33 = load i32, ptr %32, align 4, !tbaa !10
  %34 = icmp slt i32 8, %33
  br i1 %34, label %35, label %36

35:                                               ; preds = %30, %1
  store i1 false, ptr %2, align 1
  br label %187

36:                                               ; preds = %30
  call void @llvm.lifetime.start.p0(i64 4, ptr %4) #6
  store i32 0, ptr %4, align 4, !tbaa !8
  br label %37

37:                                               ; preds = %117, %36
  %38 = load i32, ptr %4, align 4, !tbaa !8
  %39 = load ptr, ptr %3, align 8, !tbaa !41
  %40 = getelementptr inbounds nuw %struct.b2Hull, ptr %39, i32 0, i32 1
  %41 = load i32, ptr %40, align 4, !tbaa !10
  %42 = icmp slt i32 %38, %41
  br i1 %42, label %44, label %43

43:                                               ; preds = %37
  store i32 2, ptr %5, align 4
  br label %120

44:                                               ; preds = %37
  call void @llvm.lifetime.start.p0(i64 4, ptr %6) #6
  %45 = load i32, ptr %4, align 4, !tbaa !8
  store i32 %45, ptr %6, align 4, !tbaa !8
  call void @llvm.lifetime.start.p0(i64 4, ptr %7) #6
  %46 = load i32, ptr %4, align 4, !tbaa !8
  %47 = load ptr, ptr %3, align 8, !tbaa !41
  %48 = getelementptr inbounds nuw %struct.b2Hull, ptr %47, i32 0, i32 1
  %49 = load i32, ptr %48, align 4, !tbaa !10
  %50 = sub nsw i32 %49, 1
  %51 = icmp slt i32 %46, %50
  br i1 %51, label %52, label %55

52:                                               ; preds = %44
  %53 = load i32, ptr %6, align 4, !tbaa !8
  %54 = add nsw i32 %53, 1
  br label %56

55:                                               ; preds = %44
  br label %56

56:                                               ; preds = %55, %52
  %57 = phi i32 [ %54, %52 ], [ 0, %55 ]
  store i32 %57, ptr %7, align 4, !tbaa !8
  call void @llvm.lifetime.start.p0(i64 8, ptr %8) #6
  %58 = load ptr, ptr %3, align 8, !tbaa !41
  %59 = getelementptr inbounds nuw %struct.b2Hull, ptr %58, i32 0, i32 0
  %60 = load i32, ptr %6, align 4, !tbaa !8
  %61 = sext i32 %60 to i64
  %62 = getelementptr inbounds [8 x %struct.b2Vec2], ptr %59, i64 0, i64 %61
  call void @llvm.memcpy.p0.p0.i64(ptr align 4 %8, ptr align 4 %62, i64 8, i1 false), !tbaa.struct !14
  call void @llvm.lifetime.start.p0(i64 8, ptr %9) #6
  %63 = load ptr, ptr %3, align 8, !tbaa !41
  %64 = getelementptr inbounds nuw %struct.b2Hull, ptr %63, i32 0, i32 0
  %65 = load i32, ptr %7, align 4, !tbaa !8
  %66 = sext i32 %65 to i64
  %67 = getelementptr inbounds [8 x %struct.b2Vec2], ptr %64, i64 0, i64 %66
  %68 = load <2 x float>, ptr %67, align 4
  %69 = load <2 x float>, ptr %8, align 4
  %70 = call <2 x float> @b2Sub(<2 x float> %68, <2 x float> %69)
  store <2 x float> %70, ptr %10, align 4
  %71 = load <2 x float>, ptr %10, align 4
  %72 = call <2 x float> @b2Normalize(<2 x float> %71)
  store <2 x float> %72, ptr %9, align 4
  call void @llvm.lifetime.start.p0(i64 4, ptr %11) #6
  store i32 0, ptr %11, align 4, !tbaa !8
  br label %73

73:                                               ; preds = %108, %56
  %74 = load i32, ptr %11, align 4, !tbaa !8
  %75 = load ptr, ptr %3, align 8, !tbaa !41
  %76 = getelementptr inbounds nuw %struct.b2Hull, ptr %75, i32 0, i32 1
  %77 = load i32, ptr %76, align 4, !tbaa !10
  %78 = icmp slt i32 %74, %77
  br i1 %78, label %80, label %79

79:                                               ; preds = %73
  store i32 5, ptr %5, align 4
  br label %111

80:                                               ; preds = %73
  %81 = load i32, ptr %11, align 4, !tbaa !8
  %82 = load i32, ptr %6, align 4, !tbaa !8
  %83 = icmp eq i32 %81, %82
  br i1 %83, label %88, label %84

84:                                               ; preds = %80
  %85 = load i32, ptr %11, align 4, !tbaa !8
  %86 = load i32, ptr %7, align 4, !tbaa !8
  %87 = icmp eq i32 %85, %86
  br i1 %87, label %88, label %89

88:                                               ; preds = %84, %80
  br label %108

89:                                               ; preds = %84
  call void @llvm.lifetime.start.p0(i64 4, ptr %12) #6
  %90 = load ptr, ptr %3, align 8, !tbaa !41
  %91 = getelementptr inbounds nuw %struct.b2Hull, ptr %90, i32 0, i32 0
  %92 = load i32, ptr %11, align 4, !tbaa !8
  %93 = sext i32 %92 to i64
  %94 = getelementptr inbounds [8 x %struct.b2Vec2], ptr %91, i64 0, i64 %93
  %95 = load <2 x float>, ptr %94, align 4
  %96 = load <2 x float>, ptr %8, align 4
  %97 = call <2 x float> @b2Sub(<2 x float> %95, <2 x float> %96)
  store <2 x float> %97, ptr %13, align 4
  %98 = load <2 x float>, ptr %13, align 4
  %99 = load <2 x float>, ptr %9, align 4
  %100 = call float @b2Cross(<2 x float> %98, <2 x float> %99)
  store float %100, ptr %12, align 4, !tbaa !12
  %101 = load float, ptr %12, align 4, !tbaa !12
  %102 = fcmp oge float %101, 0.000000e+00
  br i1 %102, label %103, label %104

103:                                              ; preds = %89
  store i1 false, ptr %2, align 1
  store i32 1, ptr %5, align 4
  br label %105

104:                                              ; preds = %89
  store i32 0, ptr %5, align 4
  br label %105

105:                                              ; preds = %104, %103
  call void @llvm.lifetime.end.p0(i64 4, ptr %12) #6
  %106 = load i32, ptr %5, align 4
  switch i32 %106, label %111 [
    i32 0, label %107
  ]

107:                                              ; preds = %105
  br label %108

108:                                              ; preds = %107, %88
  %109 = load i32, ptr %11, align 4, !tbaa !8
  %110 = add nsw i32 %109, 1
  store i32 %110, ptr %11, align 4, !tbaa !8
  br label %73, !llvm.loop !43

111:                                              ; preds = %105, %79
  call void @llvm.lifetime.end.p0(i64 4, ptr %11) #6
  %112 = load i32, ptr %5, align 4
  switch i32 %112, label %114 [
    i32 5, label %113
  ]

113:                                              ; preds = %111
  store i32 0, ptr %5, align 4
  br label %114

114:                                              ; preds = %113, %111
  call void @llvm.lifetime.end.p0(i64 8, ptr %9) #6
  call void @llvm.lifetime.end.p0(i64 8, ptr %8) #6
  call void @llvm.lifetime.end.p0(i64 4, ptr %7) #6
  call void @llvm.lifetime.end.p0(i64 4, ptr %6) #6
  %115 = load i32, ptr %5, align 4
  switch i32 %115, label %120 [
    i32 0, label %116
  ]

116:                                              ; preds = %114
  br label %117

117:                                              ; preds = %116
  %118 = load i32, ptr %4, align 4, !tbaa !8
  %119 = add nsw i32 %118, 1
  store i32 %119, ptr %4, align 4, !tbaa !8
  br label %37, !llvm.loop !44

120:                                              ; preds = %114, %43
  call void @llvm.lifetime.end.p0(i64 4, ptr %4) #6
  %121 = load i32, ptr %5, align 4
  switch i32 %121, label %189 [
    i32 2, label %122
    i32 1, label %187
  ]

122:                                              ; preds = %120
  call void @llvm.lifetime.start.p0(i64 4, ptr %14) #6
  %123 = load float, ptr @b2_lengthUnitsPerMeter, align 4, !tbaa !12
  %124 = fmul float 0x3F747AE140000000, %123
  store float %124, ptr %14, align 4, !tbaa !12
  call void @llvm.lifetime.start.p0(i64 4, ptr %15) #6
  store i32 0, ptr %15, align 4, !tbaa !8
  br label %125

125:                                              ; preds = %180, %122
  %126 = load i32, ptr %15, align 4, !tbaa !8
  %127 = load ptr, ptr %3, align 8, !tbaa !41
  %128 = getelementptr inbounds nuw %struct.b2Hull, ptr %127, i32 0, i32 1
  %129 = load i32, ptr %128, align 4, !tbaa !10
  %130 = icmp slt i32 %126, %129
  br i1 %130, label %132, label %131

131:                                              ; preds = %125
  store i32 8, ptr %5, align 4
  br label %183

132:                                              ; preds = %125
  call void @llvm.lifetime.start.p0(i64 4, ptr %16) #6
  %133 = load i32, ptr %15, align 4, !tbaa !8
  store i32 %133, ptr %16, align 4, !tbaa !8
  call void @llvm.lifetime.start.p0(i64 4, ptr %17) #6
  %134 = load i32, ptr %15, align 4, !tbaa !8
  %135 = add nsw i32 %134, 1
  %136 = load ptr, ptr %3, align 8, !tbaa !41
  %137 = getelementptr inbounds nuw %struct.b2Hull, ptr %136, i32 0, i32 1
  %138 = load i32, ptr %137, align 4, !tbaa !10
  %139 = srem i32 %135, %138
  store i32 %139, ptr %17, align 4, !tbaa !8
  call void @llvm.lifetime.start.p0(i64 4, ptr %18) #6
  %140 = load i32, ptr %15, align 4, !tbaa !8
  %141 = add nsw i32 %140, 2
  %142 = load ptr, ptr %3, align 8, !tbaa !41
  %143 = getelementptr inbounds nuw %struct.b2Hull, ptr %142, i32 0, i32 1
  %144 = load i32, ptr %143, align 4, !tbaa !10
  %145 = srem i32 %141, %144
  store i32 %145, ptr %18, align 4, !tbaa !8
  call void @llvm.lifetime.start.p0(i64 8, ptr %19) #6
  %146 = load ptr, ptr %3, align 8, !tbaa !41
  %147 = getelementptr inbounds nuw %struct.b2Hull, ptr %146, i32 0, i32 0
  %148 = load i32, ptr %16, align 4, !tbaa !8
  %149 = sext i32 %148 to i64
  %150 = getelementptr inbounds [8 x %struct.b2Vec2], ptr %147, i64 0, i64 %149
  call void @llvm.memcpy.p0.p0.i64(ptr align 4 %19, ptr align 4 %150, i64 8, i1 false), !tbaa.struct !14
  call void @llvm.lifetime.start.p0(i64 8, ptr %20) #6
  %151 = load ptr, ptr %3, align 8, !tbaa !41
  %152 = getelementptr inbounds nuw %struct.b2Hull, ptr %151, i32 0, i32 0
  %153 = load i32, ptr %17, align 4, !tbaa !8
  %154 = sext i32 %153 to i64
  %155 = getelementptr inbounds [8 x %struct.b2Vec2], ptr %152, i64 0, i64 %154
  call void @llvm.memcpy.p0.p0.i64(ptr align 4 %20, ptr align 4 %155, i64 8, i1 false), !tbaa.struct !14
  call void @llvm.lifetime.start.p0(i64 8, ptr %21) #6
  %156 = load ptr, ptr %3, align 8, !tbaa !41
  %157 = getelementptr inbounds nuw %struct.b2Hull, ptr %156, i32 0, i32 0
  %158 = load i32, ptr %18, align 4, !tbaa !8
  %159 = sext i32 %158 to i64
  %160 = getelementptr inbounds [8 x %struct.b2Vec2], ptr %157, i64 0, i64 %159
  call void @llvm.memcpy.p0.p0.i64(ptr align 4 %21, ptr align 4 %160, i64 8, i1 false), !tbaa.struct !14
  call void @llvm.lifetime.start.p0(i64 8, ptr %22) #6
  %161 = load <2 x float>, ptr %21, align 4
  %162 = load <2 x float>, ptr %19, align 4
  %163 = call <2 x float> @b2Sub(<2 x float> %161, <2 x float> %162)
  store <2 x float> %163, ptr %23, align 4
  %164 = load <2 x float>, ptr %23, align 4
  %165 = call <2 x float> @b2Normalize(<2 x float> %164)
  store <2 x float> %165, ptr %22, align 4
  call void @llvm.lifetime.start.p0(i64 4, ptr %24) #6
  %166 = load <2 x float>, ptr %20, align 4
  %167 = load <2 x float>, ptr %19, align 4
  %168 = call <2 x float> @b2Sub(<2 x float> %166, <2 x float> %167)
  store <2 x float> %168, ptr %25, align 4
  %169 = load <2 x float>, ptr %25, align 4
  %170 = load <2 x float>, ptr %22, align 4
  %171 = call float @b2Cross(<2 x float> %169, <2 x float> %170)
  store float %171, ptr %24, align 4, !tbaa !12
  %172 = load float, ptr %24, align 4, !tbaa !12
  %173 = load float, ptr %14, align 4, !tbaa !12
  %174 = fcmp ole float %172, %173
  br i1 %174, label %175, label %176

175:                                              ; preds = %132
  store i1 false, ptr %2, align 1
  store i32 1, ptr %5, align 4
  br label %177

176:                                              ; preds = %132
  store i32 0, ptr %5, align 4
  br label %177

177:                                              ; preds = %176, %175
  call void @llvm.lifetime.end.p0(i64 4, ptr %24) #6
  call void @llvm.lifetime.end.p0(i64 8, ptr %22) #6
  call void @llvm.lifetime.end.p0(i64 8, ptr %21) #6
  call void @llvm.lifetime.end.p0(i64 8, ptr %20) #6
  call void @llvm.lifetime.end.p0(i64 8, ptr %19) #6
  call void @llvm.lifetime.end.p0(i64 4, ptr %18) #6
  call void @llvm.lifetime.end.p0(i64 4, ptr %17) #6
  call void @llvm.lifetime.end.p0(i64 4, ptr %16) #6
  %178 = load i32, ptr %5, align 4
  switch i32 %178, label %183 [
    i32 0, label %179
  ]

179:                                              ; preds = %177
  br label %180

180:                                              ; preds = %179
  %181 = load i32, ptr %15, align 4, !tbaa !8
  %182 = add nsw i32 %181, 1
  store i32 %182, ptr %15, align 4, !tbaa !8
  br label %125, !llvm.loop !45

183:                                              ; preds = %177, %131
  call void @llvm.lifetime.end.p0(i64 4, ptr %15) #6
  %184 = load i32, ptr %5, align 4
  switch i32 %184, label %186 [
    i32 8, label %185
  ]

185:                                              ; preds = %183
  store i1 true, ptr %2, align 1
  store i32 1, ptr %5, align 4
  br label %186

186:                                              ; preds = %185, %183
  call void @llvm.lifetime.end.p0(i64 4, ptr %14) #6
  br label %187

187:                                              ; preds = %186, %120, %35
  %188 = load i1, ptr %2, align 1
  ret i1 %188

189:                                              ; preds = %120
  unreachable
}