; Function Attrs: nofree norecurse nosync nounwind memory(read, inaccessiblemem: none) uwtable
define noundef zeroext i1 @b2ValidateHull(ptr noundef readonly captures(none) %0) local_unnamed_addr #2 {
  %2 = getelementptr inbounds nuw i8, ptr %0, i64 64
  %3 = load i32, ptr %2, align 4, !tbaa !3
  %4 = add i32 %3, -9
  %or.cond = icmp ult i32 %4, -6
  br i1 %or.cond, label %.critedge, label %.lr.ph117

.lr.ph117:                                        ; preds = %1
  %5 = add nsw i32 %3, -1
  %6 = zext nneg i32 %5 to i64
  %wide.trip.count123 = zext nneg i32 %3 to i64
  br label %7

7:                                                ; preds = %..loopexit_crit_edge.us, %.lr.ph117
  %indvars.iv120 = phi i64 [ %indvars.iv.next121, %..loopexit_crit_edge.us ], [ 0, %.lr.ph117 ]
  %8 = icmp samesign ult i64 %indvars.iv120, %6
  %indvars.iv.next121 = add nuw nsw i64 %indvars.iv120, 1
  %9 = getelementptr inbounds nuw [8 x %struct.b2Vec2], ptr %0, i64 0, i64 %indvars.iv120
  %.sroa.028.0.copyload.us = load <2 x float>, ptr %9, align 4
  %10 = and i64 %indvars.iv.next121, 4294967295
  %11 = select i1 %8, i64 %10, i64 0
  %12 = getelementptr inbounds nuw [8 x %struct.b2Vec2], ptr %0, i64 0, i64 %11
  %13 = load <2 x float>, ptr %12, align 4
  %14 = fsub <2 x float> %13, %.sroa.028.0.copyload.us
  %15 = fsub <2 x float> %13, %.sroa.028.0.copyload.us
  %16 = extractelement <2 x float> %15, i64 1
  %17 = fmul <2 x float> %14, %14
  %18 = extractelement <2 x float> %17, i64 0
  %19 = fmul float %16, %16
  %20 = fadd float %18, %19
  %sqrt.i.us = tail call float @llvm.sqrt.f32(float %20)
  %21 = fcmp olt float %sqrt.i.us, 0x3E80000000000000
  br i1 %21, label %b2Normalize.exit.us, label %22

22:                                               ; preds = %7
  %23 = extractelement <2 x float> %14, i64 0
  %24 = fdiv float 1.000000e+00, %sqrt.i.us
  %25 = fmul float %23, %24
  %.sroa.012.0.vec.insert.i.us = insertelement <2 x float> poison, float %25, i64 0
  %26 = fmul float %16, %24
  %.sroa.012.4.vec.insert.i.us = insertelement <2 x float> %.sroa.012.0.vec.insert.i.us, float %26, i64 1
  br label %b2Normalize.exit.us

b2Normalize.exit.us:                              ; preds = %22, %7
  %.sroa.012.0.i.us = phi <2 x float> [ %.sroa.012.4.vec.insert.i.us, %22 ], [ zeroinitializer, %7 ]
  %shift = shufflevector <2 x float> %.sroa.012.0.i.us, <2 x float> poison, <2 x i32> <i32 1, i32 poison>
  br label %27

27:                                               ; preds = %b2Normalize.exit.us, %40
  %indvars.iv = phi i64 [ 0, %b2Normalize.exit.us ], [ %indvars.iv.next, %40 ]
  %28 = icmp eq i64 %indvars.iv, %indvars.iv120
  %29 = icmp eq i64 %indvars.iv, %11
  %or.cond72.us = or i1 %28, %29
  br i1 %or.cond72.us, label %40, label %30

30:                                               ; preds = %27
  %31 = getelementptr inbounds nuw [8 x %struct.b2Vec2], ptr %0, i64 0, i64 %indvars.iv
  %32 = load <2 x float>, ptr %31, align 4
  %33 = fsub <2 x float> %32, %.sroa.028.0.copyload.us
  %34 = fsub <2 x float> %32, %.sroa.028.0.copyload.us
  %35 = fmul <2 x float> %shift, %33
  %shift132 = shufflevector <2 x float> %34, <2 x float> poison, <2 x i32> <i32 1, i32 poison>
  %36 = fmul <2 x float> %.sroa.012.0.i.us, %shift132
  %37 = fsub <2 x float> %35, %36
  %38 = extractelement <2 x float> %37, i64 0
  %39 = fcmp ult float %38, 0.000000e+00
  br i1 %39, label %40, label %.critedge

40:                                               ; preds = %30, %27
  %indvars.iv.next = add nuw nsw i64 %indvars.iv, 1
  %exitcond.not = icmp eq i64 %indvars.iv.next, %wide.trip.count123
  br i1 %exitcond.not, label %..loopexit_crit_edge.us, label %27, !llvm.loop !23

..loopexit_crit_edge.us:                          ; preds = %40
  %exitcond124.not = icmp eq i64 %indvars.iv.next121, %wide.trip.count123
  br i1 %exitcond124.not, label %._crit_edge, label %7

._crit_edge:                                      ; preds = %..loopexit_crit_edge.us
  %41 = load float, ptr @b2_lengthUnitsPerMeter, align 4, !tbaa !8
  %42 = fmul float %41, 0x3F747AE140000000
  %wide.trip.count128 = zext nneg i32 %3 to i64
  br label %43

43:                                               ; preds = %b2Normalize.exit97, %._crit_edge
  %indvars.iv125 = phi i64 [ %indvars.iv.next126, %b2Normalize.exit97 ], [ 0, %._crit_edge ]
  %exitcond129.not = icmp eq i64 %indvars.iv125, %wide.trip.count128
  br i1 %exitcond129.not, label %.critedge, label %44

44:                                               ; preds = %43
  %indvars.iv.next126 = add nuw nsw i64 %indvars.iv125, 1
  %45 = trunc nuw i64 %indvars.iv.next126 to i32
  %46 = urem i32 %45, %3
  %47 = trunc i64 %indvars.iv125 to i32
  %48 = add i32 %47, 2
  %49 = urem i32 %48, %3
  %50 = getelementptr inbounds nuw [8 x %struct.b2Vec2], ptr %0, i64 0, i64 %indvars.iv125
  %.sroa.09.0.copyload = load <2 x float>, ptr %50, align 4
  %51 = zext nneg i32 %46 to i64
  %52 = getelementptr inbounds nuw [8 x %struct.b2Vec2], ptr %0, i64 0, i64 %51
  %.sroa.08.0.copyload = load <2 x float>, ptr %52, align 4
  %53 = zext nneg i32 %49 to i64
  %54 = getelementptr inbounds nuw [8 x %struct.b2Vec2], ptr %0, i64 0, i64 %53
  %.sroa.07.0.copyload = load <2 x float>, ptr %54, align 4
  %55 = fsub <2 x float> %.sroa.07.0.copyload, %.sroa.09.0.copyload
  %56 = fsub <2 x float> %.sroa.07.0.copyload, %.sroa.09.0.copyload
  %57 = extractelement <2 x float> %56, i64 1
  %58 = fmul <2 x float> %55, %55
  %59 = extractelement <2 x float> %58, i64 0
  %60 = fmul float %57, %57
  %61 = fadd float %59, %60
  %sqrt.i93 = tail call float @llvm.sqrt.f32(float %61)
  %62 = fcmp olt float %sqrt.i93, 0x3E80000000000000
  br i1 %62, label %b2Normalize.exit97, label %63

63:                                               ; preds = %44
  %64 = extractelement <2 x float> %55, i64 0
  %65 = fdiv float 1.000000e+00, %sqrt.i93
  %66 = fmul float %64, %65
  %.sroa.012.0.vec.insert.i94 = insertelement <2 x float> poison, float %66, i64 0
  %67 = fmul float %57, %65
  %.sroa.012.4.vec.insert.i95 = insertelement <2 x float> %.sroa.012.0.vec.insert.i94, float %67, i64 1
  br label %b2Normalize.exit97

b2Normalize.exit97:                               ; preds = %44, %63
  %.sroa.012.0.i96 = phi <2 x float> [ %.sroa.012.4.vec.insert.i95, %63 ], [ zeroinitializer, %44 ]
  %68 = fsub <2 x float> %.sroa.08.0.copyload, %.sroa.09.0.copyload
  %69 = fsub <2 x float> %.sroa.08.0.copyload, %.sroa.09.0.copyload
  %shift133 = shufflevector <2 x float> %.sroa.012.0.i96, <2 x float> poison, <2 x i32> <i32 1, i32 poison>
  %70 = fmul <2 x float> %68, %shift133
  %shift134 = shufflevector <2 x float> %69, <2 x float> poison, <2 x i32> <i32 1, i32 poison>
  %71 = fmul <2 x float> %shift134, %.sroa.012.0.i96
  %72 = fsub <2 x float> %70, %71
  %73 = extractelement <2 x float> %72, i64 0
  %74 = fcmp ugt float %73, %42
  br i1 %74, label %43, label %.critedge, !llvm.loop !24

.critedge:                                        ; preds = %30, %43, %b2Normalize.exit97, %1
  %.0 = phi i1 [ false, %1 ], [ %exitcond129.not, %b2Normalize.exit97 ], [ %exitcond129.not, %43 ], [ false, %30 ]
  ret i1 %.0
}